; Function Attrs: mustprogress nounwind uwtable
define void @_ZN8facebook5velox4type6ParserC2EPNS1_7ScannerE(ptr noundef nonnull align 8 dereferenceable(40) %this, ptr noundef %scanner_yyarg) unnamed_addr #3 align 2 personality ptr @__gxx_personality_v0 {
entry:
  %ref.tmp.i = alloca %"class.std::allocator", align 1
  store ptr getelementptr inbounds ({ [7 x ptr] }, ptr @_ZTVN8facebook5velox4type6ParserE, i64 0, i32 0, i64 2), ptr %this, align 8
  %yystack_ = getelementptr inbounds i8, ptr %this, i64 8
  call void @llvm.lifetime.start.p0(i64 1, ptr nonnull %ref.tmp.i)
  invoke void @_ZNSt6vectorIN8facebook5velox4type6Parser17stack_symbol_typeESaIS4_EEC2EmRKS5_(ptr noundef nonnull align 8 dereferenceable(24) %yystack_, i64 noundef 200, ptr noundef nonnull align 1 dereferenceable(1) %ref.tmp.i)
          to label %_ZN8facebook5velox4type6Parser5stackINS2_17stack_symbol_typeESt6vectorIS4_SaIS4_EEEC2Em.exit unwind label %terminate.lpad.i

terminate.lpad.i:                                 ; preds = %entry
  %0 = landingpad { ptr, i32 }
          catch ptr null
  %1 = extractvalue { ptr, i32 } %0, 0
  call void @__clang_call_terminate(ptr %1) #24
  unreachable

_ZN8facebook5velox4type6Parser5stackINS2_17stack_symbol_typeESt6vectorIS4_SaIS4_EEEC2Em.exit: ; preds = %entry
  call void @llvm.lifetime.end.p0(i64 1, ptr nonnull %ref.tmp.i)
  %scanner = getelementptr inbounds i8, ptr %this, i64 32
  store ptr %scanner_yyarg, ptr %scanner, align 8
  ret void
}